target datalayout = "e-m:e-p270:32:32-p271:32:32-p272:64:64-i64:64-i128:128-f80:128-n8:16:32:64-S128"
target triple = "x86_64-pc-linux-gnu"

; Function Attrs: alwaysinline nounwind uwtable
define internal zeroext i16 @mbedtls_get_unaligned_uint16(ptr noundef %0) #8 {
  %2 = alloca ptr, align 8
  %3 = alloca i16, align 2
  store ptr %0, ptr %2, align 8, !tbaa !37
  call void @llvm.lifetime.start.p0(i64 2, ptr %3) #11
  %4 = load ptr, ptr %2, align 8, !tbaa !37
  call void @llvm.memcpy.p0.p0.i64(ptr align 2 %3, ptr align 1 %4, i64 2, i1 false)
  %5 = load i16, ptr %3, align 2, !tbaa !141
  call void @llvm.lifetime.end.p0(i64 2, ptr %3) #11
  ret i16 %5
}

; Function Attrs: nounwind uwtable
define hidden zeroext i16 @mbedtls_ssl_read_version(ptr noundef %0, i32 noundef %1) #0 {
  %3 = alloca ptr, align 8
  %4 = alloca i32, align 4
  %5 = alloca i16, align 2
  store ptr %0, ptr %3, align 8, !tbaa !21
  store i32 %1, ptr %4, align 4, !tbaa !8
  call void @llvm.lifetime.start.p0(i64 2, ptr %5) #11
  %6 = load ptr, ptr %3, align 8, !tbaa !21
  %7 = getelementptr inbounds i8, ptr %6, i64 0
  %8 = call zeroext i16 @mbedtls_get_unaligned_uint16(ptr noundef %7)
  %9 = call i16 @llvm.bswap.i16(i16 %8)
  %10 = zext i16 %9 to i32
  %11 = trunc i32 %10 to i16
  store i16 %11, ptr %5, align 2, !tbaa !141
  %12 = load i32, ptr %4, align 4, !tbaa !8
  %13 = icmp eq i32 %12, 1
  br i1 %13, label %14, label %24

14:                                               ; preds = %2
  %15 = load i16, ptr %5, align 2, !tbaa !141
  %16 = zext i16 %15 to i32
  %17 = load i16, ptr %5, align 2, !tbaa !141
  %18 = zext i16 %17 to i32
  %19 = icmp eq i32 %18, 65279
  %20 = select i1 %19, i32 514, i32 513
  %21 = sub nsw i32 %16, %20
  %22 = xor i32 %21, -1
  %23 = trunc i32 %22 to i16
  store i16 %23, ptr %5, align 2, !tbaa !141
  br label %24

24:                                               ; preds = %14, %2
  %25 = load i16, ptr %5, align 2, !tbaa !141
  call void @llvm.lifetime.end.p0(i64 2, ptr %5) #11
  ret i16 %25
}