; Function Attrs: mustprogress nofree norecurse nosync nounwind willreturn memory(argmem: read) uwtable
define hidden zeroext i16 @mbedtls_ssl_read_version(ptr noundef readonly captures(none) %0, i32 noundef %1) local_unnamed_addr #13 {
  %.0.copyload.i = load i16, ptr %0, align 1
  %3 = tail call i16 @llvm.bswap.i16(i16 %.0.copyload.i)
  %4 = icmp eq i32 %1, 1
  %5 = icmp eq i16 %.0.copyload.i, -2
  %6 = select i1 %5, i16 513, i16 512
  %7 = sub i16 %6, %3
  %.0 = select i1 %4, i16 %7, i16 %3
  ret i16 %.0
}